; ModuleID = '21/1469.c'
source_filename = "21/1469.c"
target datalayout = "e-m:e-p270:32:32-p271:32:32-p272:64:64-i64:64-f80:128-n8:16:32:64-S128"
target triple = "x86_64-pc-linux-gnu"

@.str = private unnamed_addr constant [3 x i8] c"%d\00", align 1
@.str.1 = private unnamed_addr constant [6 x i8] c"%d,%d\00", align 1

; Function Attrs: noinline nounwind uwtable
define dso_local i32 @main() #0 {
  %1 = alloca i32, align 4
  %2 = alloca i32, align 4
  %3 = alloca i32, align 4
  %4 = alloca [1000 x i32], align 16
  %5 = alloca i32, align 4
  %6 = alloca i32, align 4
  %7 = alloca float, align 4
  %8 = alloca float, align 4
  %9 = alloca float, align 4
  %10 = alloca float, align 4
  store i32 0, i32* %1, align 4
  store float 0.000000e+00, float* %10, align 4
  %11 = call i32 (i8*, ...) @__isoc99_scanf(i8* getelementptr inbounds ([3 x i8], [3 x i8]* @.str, i64 0, i64 0), i32* %2)
  store i32 1, i32* %3, align 4
  br label %12

12:                                               ; preds = %28, %0
  %13 = load i32, i32* %3, align 4
  %14 = load i32, i32* %2, align 4
  %15 = icmp sle i32 %13, %14
  br i1 %15, label %16, label %31

16:                                               ; preds = %12
  %17 = load i32, i32* %3, align 4
  %18 = sext i32 %17 to i64
  %19 = getelementptr inbounds [1000 x i32], [1000 x i32]* %4, i64 0, i64 %18
  %20 = call i32 (i8*, ...) @__isoc99_scanf(i8* getelementptr inbounds ([3 x i8], [3 x i8]* @.str, i64 0, i64 0), i32* %19)
  %21 = load float, float* %10, align 4
  %22 = load i32, i32* %3, align 4
  %23 = sext i32 %22 to i64
  %24 = getelementptr inbounds [1000 x i32], [1000 x i32]* %4, i64 0, i64 %23
  %25 = load i32, i32* %24, align 4
  %26 = sitofp i32 %25 to float
  %27 = fadd float %21, %26
  store float %27, float* %10, align 4
  br label %28

28:                                               ; preds = %16
  %29 = load i32, i32* %3, align 4
  %30 = add nsw i32 %29, 1
  store i32 %30, i32* %3, align 4
  br label %12

31:                                               ; preds = %12
  %32 = load float, float* %10, align 4
  %33 = load i32, i32* %2, align 4
  %34 = sitofp i32 %33 to float
  %35 = fdiv float %32, %34
  store float %35, float* %7, align 4
  store i32 2, i32* %3, align 4
  br label %36

36:                                               ; preds = %80, %31
  %37 = load i32, i32* %3, align 4
  %38 = load i32, i32* %2, align 4
  %39 = icmp sle i32 %37, %38
  br i1 %39, label %40, label %83

40:                                               ; preds = %36
  %41 = load i32, i32* %3, align 4
  %42 = sub nsw i32 %41, 1
  store i32 %42, i32* %5, align 4
  br label %43

43:                                               ; preds = %76, %40
  %44 = load i32, i32* %5, align 4
  %45 = icmp sge i32 %44, 1
  br i1 %45, label %46, label %79

46:                                               ; preds = %43
  %47 = load i32, i32* %5, align 4
  %48 = add nsw i32 %47, 1
  %49 = sext i32 %48 to i64
  %50 = getelementptr inbounds [1000 x i32], [1000 x i32]* %4, i64 0, i64 %49
  %51 = load i32, i32* %50, align 4
  %52 = load i32, i32* %5, align 4
  %53 = sext i32 %52 to i64
  %54 = getelementptr inbounds [1000 x i32], [1000 x i32]* %4, i64 0, i64 %53
  %55 = load i32, i32* %54, align 4
  %56 = icmp slt i32 %51, %55
  br i1 %56, label %57, label %75

57:                                               ; preds = %46
  %58 = load i32, i32* %5, align 4
  %59 = sext i32 %58 to i64
  %60 = getelementptr inbounds [1000 x i32], [1000 x i32]* %4, i64 0, i64 %59
  %61 = load i32, i32* %60, align 4
  store i32 %61, i32* %6, align 4
  %62 = load i32, i32* %5, align 4
  %63 = add nsw i32 %62, 1
  %64 = sext i32 %63 to i64
  %65 = getelementptr inbounds [1000 x i32], [1000 x i32]* %4, i64 0, i64 %64
  %66 = load i32, i32* %65, align 4
  %67 = load i32, i32* %5, align 4
  %68 = sext i32 %67 to i64
  %69 = getelementptr inbounds [1000 x i32], [1000 x i32]* %4, i64 0, i64 %68
  store i32 %66, i32* %69, align 4
  %70 = load i32, i32* %6, align 4
  %71 = load i32, i32* %5, align 4
  %72 = add nsw i32 %71, 1
  %73 = sext i32 %72 to i64
  %74 = getelementptr inbounds [1000 x i32], [1000 x i32]* %4, i64 0, i64 %73
  store i32 %70, i32* %74, align 4
  br label %75

75:                                               ; preds = %57, %46
  br label %76

76:                                               ; preds = %75
  %77 = load i32, i32* %5, align 4
  %78 = add nsw i32 %77, -1
  store i32 %78, i32* %5, align 4
  br label %43

79:                                               ; preds = %43
  br label %80

80:                                               ; preds = %79
  %81 = load i32, i32* %3, align 4
  %82 = add nsw i32 %81, 1
  store i32 %82, i32* %3, align 4
  br label %36

83:                                               ; preds = %36
  %84 = load float, float* %7, align 4
  %85 = getelementptr inbounds [1000 x i32], [1000 x i32]* %4, i64 0, i64 1
  %86 = load i32, i32* %85, align 4
  %87 = sitofp i32 %86 to float
  %88 = fsub float %84, %87
  store float %88, float* %8, align 4
  %89 = load i32, i32* %2, align 4
  %90 = sext i32 %89 to i64
  %91 = getelementptr inbounds [1000 x i32], [1000 x i32]* %4, i64 0, i64 %90
  %92 = load i32, i32* %91, align 4
  %93 = sitofp i32 %92 to float
  %94 = load float, float* %7, align 4
  %95 = fsub float %93, %94
  store float %95, float* %9, align 4
  %96 = load float, float* %8, align 4
  %97 = load float, float* %9, align 4
  %98 = fcmp oeq float %96, %97
  br i1 %98, label %99, label %107

99:                                               ; preds = %83
  %100 = getelementptr inbounds [1000 x i32], [1000 x i32]* %4, i64 0, i64 1
  %101 = load i32, i32* %100, align 4
  %102 = load i32, i32* %2, align 4
  %103 = sext i32 %102 to i64
  %104 = getelementptr inbounds [1000 x i32], [1000 x i32]* %4, i64 0, i64 %103
  %105 = load i32, i32* %104, align 4
  %106 = call i32 (i8*, ...) @printf(i8* getelementptr inbounds ([6 x i8], [6 x i8]* @.str.1, i64 0, i64 0), i32 %101, i32 %105)
  br label %107

107:                                              ; preds = %99, %83
  %108 = load float, float* %8, align 4
  %109 = load float, float* %9, align 4
  %110 = fcmp ogt float %108, %109
  br i1 %110, label %111, label %115

111:                                              ; preds = %107
  %112 = getelementptr inbounds [1000 x i32], [1000 x i32]* %4, i64 0, i64 1
  %113 = load i32, i32* %112, align 4
  %114 = call i32 (i8*, ...) @printf(i8* getelementptr inbounds ([3 x i8], [3 x i8]* @.str, i64 0, i64 0), i32 %113)
  br label %115

115:                                              ; preds = %111, %107
  %116 = load float, float* %8, align 4
  %117 = load float, float* %9, align 4
  %118 = fcmp olt float %116, %117
  br i1 %118, label %119, label %125

119:                                              ; preds = %115
  %120 = load i32, i32* %2, align 4
  %121 = sext i32 %120 to i64
  %122 = getelementptr inbounds [1000 x i32], [1000 x i32]* %4, i64 0, i64 %121
  %123 = load i32, i32* %122, align 4
  %124 = call i32 (i8*, ...) @printf(i8* getelementptr inbounds ([3 x i8], [3 x i8]* @.str, i64 0, i64 0), i32 %123)
  br label %125

125:                                              ; preds = %119, %115
  ret i32 0
}

declare dso_local i32 @__isoc99_scanf(i8*, ...) #1

declare dso_local i32 @printf(i8*, ...) #1


!llvm.module.flags = !{!0}
!llvm.ident = !{!1}

!0 = !{i32 1, !"wchar_size", i32 4}
!1 = !{!"clang version 10.0.0-4ubuntu1 "}
